target datalayout = "e-m:e-p270:32:32-p271:32:32-p272:64:64-i64:64-i128:128-f80:128-n8:16:32:64-S128"
target triple = "x86_64-pc-linux-gnu"

%struct._GtkDarktableGradientSlider = type { %struct._GtkDrawingArea, ptr, i32, i32, i32, [10 x double], [10 x double], [10 x i32], double, double, [3 x double], i32, i32, i32, i32, i32, i32, i32, i32, i32, ptr }
%struct._GtkDrawingArea = type { %struct._GtkWidget, ptr }
%struct._GtkWidget = type { %struct._GObject, ptr }
%struct._GObject = type { %struct._GTypeInstance, i32, ptr }
%struct._GTypeInstance = type { ptr }

@.str.1 = private unnamed_addr constant [16 x i8] c"gslider != NULL\00", align 1
@__func__.dtgtk_gradient_slider_multivalue_set_resetvalue = private unnamed_addr constant [48 x i8] c"dtgtk_gradient_slider_multivalue_set_resetvalue\00", align 1

; Function Attrs: nounwind uwtable
define void @dtgtk_gradient_slider_multivalue_set_resetvalue(ptr noundef %0, double noundef %1, i32 noundef %2) #0 {
  %4 = alloca ptr, align 8
  %5 = alloca double, align 8
  %6 = alloca i32, align 4
  %7 = alloca i32, align 4
  %8 = alloca i32, align 4
  store ptr %0, ptr %4, align 8, !tbaa !24
  store double %1, ptr %5, align 8, !tbaa !45
  store i32 %2, ptr %6, align 4, !tbaa !13
  br label %9

9:                                                ; preds = %3
  call void @llvm.lifetime.start.p0(i64 4, ptr %7) #11
  %10 = load ptr, ptr %4, align 8, !tbaa !24
  %11 = icmp ne ptr %10, null
  br i1 %11, label %12, label %13

12:                                               ; preds = %9
  store i32 1, ptr %7, align 4, !tbaa !13
  br label %14

13:                                               ; preds = %9
  store i32 0, ptr %7, align 4, !tbaa !13
  br label %14

14:                                               ; preds = %13, %12
  %15 = load i32, ptr %7, align 4, !tbaa !13
  store i32 %15, ptr %8, align 4, !tbaa !13
  call void @llvm.lifetime.end.p0(i64 4, ptr %7) #11
  %16 = load i32, ptr %8, align 4, !tbaa !13
  %17 = sext i32 %16 to i64
  %18 = call i64 @llvm.expect.i64(i64 %17, i64 1)
  %19 = icmp ne i64 %18, 0
  br i1 %19, label %20, label %21

20:                                               ; preds = %14
  br label %22

21:                                               ; preds = %14
  call void @g_return_if_fail_warning(ptr noundef null, ptr noundef @__func__.dtgtk_gradient_slider_multivalue_set_resetvalue, ptr noundef @.str.1)
  br label %39

22:                                               ; preds = %20
  br label %23

23:                                               ; preds = %22
  %24 = load ptr, ptr %4, align 8, !tbaa !24
  %25 = getelementptr inbounds nuw %struct._GtkDarktableGradientSlider, ptr %24, i32 0, i32 20
  %26 = load ptr, ptr %25, align 8, !tbaa !43
  %27 = load ptr, ptr %4, align 8, !tbaa !24
  %28 = load double, ptr %5, align 8, !tbaa !45
  %29 = fptrunc reassoc nsz arcp contract afn double %28 to float
  %30 = call reassoc nsz arcp contract afn float %26(ptr noundef %27, float noundef %29, i32 noundef 1)
  %31 = fpext reassoc nsz arcp contract afn float %30 to double
  %32 = load ptr, ptr %4, align 8, !tbaa !24
  %33 = getelementptr inbounds nuw %struct._GtkDarktableGradientSlider, ptr %32, i32 0, i32 6
  %34 = load i32, ptr %6, align 4, !tbaa !13
  %35 = sext i32 %34 to i64
  %36 = getelementptr inbounds [10 x double], ptr %33, i64 0, i64 %35
  store double %31, ptr %36, align 8, !tbaa !45
  %37 = load ptr, ptr %4, align 8, !tbaa !24
  %38 = getelementptr inbounds nuw %struct._GtkDarktableGradientSlider, ptr %37, i32 0, i32 15
  store i32 1, ptr %38, align 8, !tbaa !44
  br label %39

39:                                               ; preds = %23, %21
  ret void
}