; Function Attrs: nounwind uwtable
define void @dtgtk_gradient_slider_multivalue_set_resetvalue(ptr noundef %0, double noundef %1, i32 noundef %2) local_unnamed_addr #0 {
  %.not = icmp eq ptr %0, null
  br i1 %.not, label %4, label %5, !prof !45

4:                                                ; preds = %3
  tail call void @g_return_if_fail_warning(ptr noundef null, ptr noundef nonnull @__func__.dtgtk_gradient_slider_multivalue_set_resetvalue, ptr noundef nonnull @.str.1) #14
  br label %15

5:                                                ; preds = %3
  %6 = getelementptr inbounds nuw i8, ptr %0, i64 344
  %7 = load ptr, ptr %6, align 8, !tbaa !34
  %8 = fptrunc reassoc nsz arcp contract afn double %1 to float
  %9 = tail call reassoc nsz arcp contract afn float %7(ptr noundef nonnull %0, float noundef %8, i32 noundef 1) #14
  %10 = fpext reassoc nsz arcp contract afn float %9 to double
  %11 = getelementptr inbounds nuw i8, ptr %0, i64 144
  %12 = sext i32 %2 to i64
  %13 = getelementptr inbounds [10 x double], ptr %11, i64 0, i64 %12
  store double %10, ptr %13, align 8, !tbaa !37
  %14 = getelementptr inbounds nuw i8, ptr %0, i64 320
  store i32 1, ptr %14, align 8, !tbaa !35
  br label %15

15:                                               ; preds = %5, %4
  ret void
}